target datalayout = "e-m:e-p270:32:32-p271:32:32-p272:64:64-i64:64-i128:128-f80:128-n8:16:32:64-S128"
target triple = "x86_64-pc-linux-gnu"

%struct.ResourceOwnerDesc = type { ptr, i32, i32, ptr, ptr }
%struct.WaitEventSet = type { ptr, i32, i32, ptr, ptr, i32, i8, i32, ptr }
%struct.WaitEvent = type { i32, i32, i32, ptr }

@IsUnderPostmaster = external global i8, align 1
@CurrentResourceOwner = external global ptr, align 8
@wait_event_set_resowner_desc = internal constant %struct.ResourceOwnerDesc { ptr @.str.12, i32 3, i32 700, ptr @ResOwnerReleaseWaitEventSet, ptr null }, align 8

; Function Attrs: inlinehint nounwind uwtable
define internal i64 @PointerGetDatum(ptr noundef %0) #5 {
  %2 = alloca ptr, align 8
  store ptr %0, ptr %2, align 8
  %3 = load ptr, ptr %2, align 8
  %4 = ptrtoint ptr %3 to i64
  ret i64 %4
}

; Function Attrs: inlinehint nounwind uwtable
define internal void @ResourceOwnerForgetWaitEventSet(ptr noundef %0, ptr noundef %1) #5 {
  %3 = alloca ptr, align 8
  %4 = alloca ptr, align 8
  store ptr %0, ptr %3, align 8
  store ptr %1, ptr %4, align 8
  %5 = load ptr, ptr %3, align 8
  %6 = load ptr, ptr %4, align 8
  %7 = call i64 @PointerGetDatum(ptr noundef %6)
  call void @ResourceOwnerForget(ptr noundef %5, i64 noundef %7, ptr noundef @wait_event_set_resowner_desc)
  ret void
}

; Function Attrs: nounwind uwtable
define dso_local void @FreeWaitEventSet(ptr noundef %0) #0 {
  %2 = alloca ptr, align 8
  store ptr %0, ptr %2, align 8
  %3 = load ptr, ptr %2, align 8
  %4 = getelementptr inbounds nuw %struct.WaitEventSet, ptr %3, i32 0, i32 0
  %5 = load ptr, ptr %4, align 8
  %6 = icmp ne ptr %5, null
  br i1 %6, label %7, label %14

7:                                                ; preds = %1
  %8 = load ptr, ptr %2, align 8
  %9 = getelementptr inbounds nuw %struct.WaitEventSet, ptr %8, i32 0, i32 0
  %10 = load ptr, ptr %9, align 8
  %11 = load ptr, ptr %2, align 8
  call void @ResourceOwnerForgetWaitEventSet(ptr noundef %10, ptr noundef %11)
  %12 = load ptr, ptr %2, align 8
  %13 = getelementptr inbounds nuw %struct.WaitEventSet, ptr %12, i32 0, i32 0
  store ptr null, ptr %13, align 8
  br label %14

14:                                               ; preds = %7, %1
  %15 = load ptr, ptr %2, align 8
  %16 = getelementptr inbounds nuw %struct.WaitEventSet, ptr %15, i32 0, i32 7
  %17 = load i32, ptr %16, align 8
  %18 = call i32 @close(i32 noundef %17)
  call void @ReleaseExternalFD()
  %19 = load ptr, ptr %2, align 8
  call void @pfree(ptr noundef %19)
  ret void
}

; Function Attrs: nounwind uwtable
define dso_local i32 @WaitLatchOrSocket(ptr noundef %0, i32 noundef %1, i32 noundef %2, i64 noundef %3, i32 noundef %4) #0 {
  %6 = alloca ptr, align 8
  %7 = alloca i32, align 4
  %8 = alloca i32, align 4
  %9 = alloca i64, align 8
  %10 = alloca i32, align 4
  %11 = alloca i32, align 4
  %12 = alloca i32, align 4
  %13 = alloca %struct.WaitEvent, align 8
  %14 = alloca ptr, align 8
  %15 = alloca i32, align 4
  store ptr %0, ptr %6, align 8
  store i32 %1, ptr %7, align 4
  store i32 %2, ptr %8, align 4
  store i64 %3, ptr %9, align 8
  store i32 %4, ptr %10, align 4
  call void @llvm.lifetime.start.p0(i64 4, ptr %11) #9
  store i32 0, ptr %11, align 4
  call void @llvm.lifetime.start.p0(i64 4, ptr %12) #9
  call void @llvm.lifetime.start.p0(i64 24, ptr %13) #9
  call void @llvm.lifetime.start.p0(i64 8, ptr %14) #9
  %16 = load ptr, ptr @CurrentResourceOwner, align 8
  %17 = call ptr @CreateWaitEventSet(ptr noundef %16, i32 noundef 3)
  store ptr %17, ptr %14, align 8
  %18 = load i32, ptr %7, align 4
  %19 = and i32 %18, 8
  %20 = icmp ne i32 %19, 0
  br i1 %20, label %21, label %22

21:                                               ; preds = %5
  br label %23

22:                                               ; preds = %5
  store i64 -1, ptr %9, align 8
  br label %23

23:                                               ; preds = %22, %21
  %24 = load i32, ptr %7, align 4
  %25 = and i32 %24, 1
  %26 = icmp ne i32 %25, 0
  br i1 %26, label %27, label %31

27:                                               ; preds = %23
  %28 = load ptr, ptr %14, align 8
  %29 = load ptr, ptr %6, align 8
  %30 = call i32 @AddWaitEventToSet(ptr noundef %28, i32 noundef 1, i32 noundef -1, ptr noundef %29, ptr noundef null)
  br label %31

31:                                               ; preds = %27, %23
  %32 = load i32, ptr %7, align 4
  %33 = and i32 %32, 16
  %34 = icmp ne i32 %33, 0
  br i1 %34, label %35, label %41

35:                                               ; preds = %31
  %36 = load i8, ptr @IsUnderPostmaster, align 1, !range !4, !noundef !5
  %37 = trunc i8 %36 to i1
  br i1 %37, label %38, label %41

38:                                               ; preds = %35
  %39 = load ptr, ptr %14, align 8
  %40 = call i32 @AddWaitEventToSet(ptr noundef %39, i32 noundef 16, i32 noundef -1, ptr noundef null, ptr noundef null)
  br label %41

41:                                               ; preds = %38, %35, %31
  %42 = load i32, ptr %7, align 4
  %43 = and i32 %42, 32
  %44 = icmp ne i32 %43, 0
  br i1 %44, label %45, label %51

45:                                               ; preds = %41
  %46 = load i8, ptr @IsUnderPostmaster, align 1, !range !4, !noundef !5
  %47 = trunc i8 %46 to i1
  br i1 %47, label %48, label %51

48:                                               ; preds = %45
  %49 = load ptr, ptr %14, align 8
  %50 = call i32 @AddWaitEventToSet(ptr noundef %49, i32 noundef 32, i32 noundef -1, ptr noundef null, ptr noundef null)
  br label %51

51:                                               ; preds = %48, %45, %41
  %52 = load i32, ptr %7, align 4
  %53 = and i32 %52, 134
  %54 = icmp ne i32 %53, 0
  br i1 %54, label %55, label %62

55:                                               ; preds = %51
  call void @llvm.lifetime.start.p0(i64 4, ptr %15) #9
  %56 = load i32, ptr %7, align 4
  %57 = and i32 %56, 134
  store i32 %57, ptr %15, align 4
  %58 = load ptr, ptr %14, align 8
  %59 = load i32, ptr %15, align 4
  %60 = load i32, ptr %8, align 4
  %61 = call i32 @AddWaitEventToSet(ptr noundef %58, i32 noundef %59, i32 noundef %60, ptr noundef null, ptr noundef null)
  call void @llvm.lifetime.end.p0(i64 4, ptr %15) #9
  br label %62

62:                                               ; preds = %55, %51
  %63 = load ptr, ptr %14, align 8
  %64 = load i64, ptr %9, align 8
  %65 = load i32, ptr %10, align 4
  %66 = call i32 @WaitEventSetWait(ptr noundef %63, i64 noundef %64, ptr noundef %13, i32 noundef 1, i32 noundef %65)
  store i32 %66, ptr %12, align 4
  %67 = load i32, ptr %12, align 4
  %68 = icmp eq i32 %67, 0
  br i1 %68, label %69, label %72

69:                                               ; preds = %62
  %70 = load i32, ptr %11, align 4
  %71 = or i32 %70, 8
  store i32 %71, ptr %11, align 4
  br label %78

72:                                               ; preds = %62
  %73 = getelementptr inbounds nuw %struct.WaitEvent, ptr %13, i32 0, i32 1
  %74 = load i32, ptr %73, align 4
  %75 = and i32 %74, 151
  %76 = load i32, ptr %11, align 4
  %77 = or i32 %76, %75
  store i32 %77, ptr %11, align 4
  br label %78

78:                                               ; preds = %72, %69
  %79 = load ptr, ptr %14, align 8
  call void @FreeWaitEventSet(ptr noundef %79)
  %80 = load i32, ptr %11, align 4
  call void @llvm.lifetime.end.p0(i64 8, ptr %14) #9
  call void @llvm.lifetime.end.p0(i64 24, ptr %13) #9
  call void @llvm.lifetime.end.p0(i64 4, ptr %12) #9
  call void @llvm.lifetime.end.p0(i64 4, ptr %11) #9
  ret i32 %80
}