; Function Attrs: nounwind uwtable
define dso_local range(i32 0, 152) i32 @WaitLatchOrSocket(ptr noundef %0, i32 noundef %1, i32 noundef %2, i64 noundef %3, i32 noundef %4) local_unnamed_addr #0 {
  %6 = alloca %struct.WaitEvent, align 8
  call void @llvm.lifetime.start.p0(i64 24, ptr nonnull %6) #14
  %7 = load ptr, ptr @CurrentResourceOwner, align 8
  %8 = tail call ptr @CreateWaitEventSet(ptr noundef %7, i32 noundef 3)
  %9 = and i32 %1, 8
  %.not = icmp eq i32 %9, 0
  %spec.select = select i1 %.not, i64 -1, i64 %3
  %10 = and i32 %1, 1
  %.not22 = icmp eq i32 %10, 0
  br i1 %.not22, label %13, label %11

11:                                               ; preds = %5
  %12 = tail call i32 @AddWaitEventToSet(ptr noundef %8, i32 noundef 1, i32 noundef -1, ptr noundef %0, ptr noundef null)
  br label %13

13:                                               ; preds = %11, %5
  %14 = and i32 %1, 16
  %.not23 = icmp eq i32 %14, 0
  br i1 %.not23, label %30, label %15

15:                                               ; preds = %13
  %16 = load i8, ptr @IsUnderPostmaster, align 1, !range !4, !noundef !5
  %17 = trunc nuw i8 %16 to i1
  br i1 %17, label %18, label %30

18:                                               ; preds = %15
  %19 = getelementptr inbounds nuw i8, ptr %8, i64 16
  %20 = load ptr, ptr %19, align 8
  %21 = getelementptr inbounds nuw i8, ptr %8, i64 8
  %22 = load i32, ptr %21, align 8
  %23 = sext i32 %22 to i64
  %24 = getelementptr inbounds %struct.WaitEvent, ptr %20, i64 %23
  %25 = add i32 %22, 1
  store i32 %25, ptr %21, align 8
  store i32 %22, ptr %24, align 8
  %26 = getelementptr inbounds nuw i8, ptr %24, i64 8
  store i32 -1, ptr %26, align 8
  %27 = getelementptr inbounds nuw i8, ptr %24, i64 4
  store i32 16, ptr %27, align 4
  %28 = getelementptr inbounds nuw i8, ptr %24, i64 16
  store ptr null, ptr %28, align 8
  %29 = load i32, ptr @postmaster_alive_fds, align 4
  store i32 %29, ptr %26, align 8
  tail call fastcc void @WaitEventAdjustEpoll(ptr noundef nonnull %8, ptr noundef nonnull %24, i32 noundef 1)
  br label %30

30:                                               ; preds = %18, %15, %13
  %31 = and i32 %1, 32
  %.not24 = icmp eq i32 %31, 0
  br i1 %.not24, label %48, label %32

32:                                               ; preds = %30
  %33 = load i8, ptr @IsUnderPostmaster, align 1, !range !4, !noundef !5
  %34 = trunc nuw i8 %33 to i1
  br i1 %34, label %35, label %48

35:                                               ; preds = %32
  %36 = getelementptr inbounds nuw i8, ptr %8, i64 36
  store i8 1, ptr %36, align 4
  %37 = getelementptr inbounds nuw i8, ptr %8, i64 16
  %38 = load ptr, ptr %37, align 8
  %39 = getelementptr inbounds nuw i8, ptr %8, i64 8
  %40 = load i32, ptr %39, align 8
  %41 = sext i32 %40 to i64
  %42 = getelementptr inbounds %struct.WaitEvent, ptr %38, i64 %41
  %43 = add i32 %40, 1
  store i32 %43, ptr %39, align 8
  store i32 %40, ptr %42, align 8
  %44 = getelementptr inbounds nuw i8, ptr %42, i64 8
  store i32 -1, ptr %44, align 8
  %45 = getelementptr inbounds nuw i8, ptr %42, i64 4
  store i32 16, ptr %45, align 4
  %46 = getelementptr inbounds nuw i8, ptr %42, i64 16
  store ptr null, ptr %46, align 8
  %47 = load i32, ptr @postmaster_alive_fds, align 4
  store i32 %47, ptr %44, align 8
  tail call fastcc void @WaitEventAdjustEpoll(ptr noundef nonnull %8, ptr noundef nonnull %42, i32 noundef 1)
  br label %48

48:                                               ; preds = %35, %32, %30
  %49 = and i32 %1, 134
  %.not25 = icmp eq i32 %49, 0
  br i1 %.not25, label %52, label %50

50:                                               ; preds = %48
  %51 = tail call i32 @AddWaitEventToSet(ptr noundef %8, i32 noundef %49, i32 noundef %2, ptr noundef null, ptr noundef null)
  br label %52

52:                                               ; preds = %50, %48
  %53 = call i32 @WaitEventSetWait(ptr noundef %8, i64 noundef %spec.select, ptr noundef nonnull %6, i32 noundef 1, i32 noundef %4)
  %54 = getelementptr inbounds nuw i8, ptr %6, i64 4
  %55 = load i32, ptr %54, align 4
  %56 = load ptr, ptr %8, align 8
  %.not.i = icmp eq ptr %56, null
  br i1 %.not.i, label %FreeWaitEventSet.exit, label %57

57:                                               ; preds = %52
  %58 = ptrtoint ptr %8 to i64
  tail call void @ResourceOwnerForget(ptr noundef nonnull %56, i64 noundef %58, ptr noundef nonnull @wait_event_set_resowner_desc) #14
  store ptr null, ptr %8, align 8
  br label %FreeWaitEventSet.exit

FreeWaitEventSet.exit:                            ; preds = %52, %57
  %59 = icmp eq i32 %53, 0
  %60 = and i32 %55, 151
  %.020 = select i1 %59, i32 8, i32 %60
  %61 = getelementptr inbounds nuw i8, ptr %8, i64 40
  %62 = load i32, ptr %61, align 8
  %63 = tail call i32 @close(i32 noundef %62) #14
  tail call void @ReleaseExternalFD() #14
  tail call void @pfree(ptr noundef nonnull %8) #14
  call void @llvm.lifetime.end.p0(i64 24, ptr nonnull %6) #14
  ret i32 %.020
}